; Function Attrs: nounwind uwtable
define internal i32 @prte_odls_default_launch_local_procs(ptr noundef %0) #1 {
  %2 = alloca [256 x i8], align 16
  call void @llvm.lifetime.start.p0(i64 256, ptr nonnull %2) #16
  %3 = call i32 @prte_odls_base_default_construct_child_list(ptr noundef %0, ptr noundef nonnull %2) #16
  %.not = icmp eq i32 %3, 0
  br i1 %.not, label %14, label %4

4:                                                ; preds = %1
  %5 = load i32, ptr getelementptr inbounds nuw (i8, ptr @prte_odls_base_framework, i64 76), align 4, !tbaa !3
  %or.cond = icmp ult i32 %5, 64
  br i1 %or.cond, label %6, label %39

6:                                                ; preds = %4
  %7 = zext nneg i32 %5 to i64
  %8 = getelementptr inbounds nuw [0 x %struct.pmix_output_desc_t], ptr @pmix_output_info, i64 0, i64 %7, i32 2
  %9 = load i32, ptr %8, align 4, !tbaa !18
  %10 = icmp sgt i32 %9, 1
  br i1 %10, label %11, label %39

11:                                               ; preds = %6
  %12 = call ptr @prte_util_print_name_args(ptr noundef nonnull @prte_process_info) #16
  %13 = call ptr @prte_strerror(i32 noundef %3) #16
  call void (i32, ptr, ...) @pmix_output(i32 noundef %5, ptr noundef nonnull @.str.4, ptr noundef %12, ptr noundef %13) #16
  br label %39

14:                                               ; preds = %1
  %15 = load i64, ptr getelementptr inbounds nuw (i8, ptr @prte_odls_launch_local_t_class, i64 56), align 8, !tbaa !21
  %16 = call noalias noundef ptr @malloc(i64 noundef %15) #17
  %17 = load i32, ptr @pmix_class_init_epoch, align 4, !tbaa !23
  %18 = load i32, ptr getelementptr inbounds nuw (i8, ptr @prte_odls_launch_local_t_class, i64 32), align 8, !tbaa !24
  %.not.i = icmp eq i32 %17, %18
  br i1 %.not.i, label %20, label %19

19:                                               ; preds = %14
  call void @pmix_class_initialize(ptr noundef nonnull @prte_odls_launch_local_t_class) #16
  br label %20

20:                                               ; preds = %19, %14
  %.not22.i = icmp eq ptr %16, null
  br i1 %.not22.i, label %pmix_obj_new_tma.exit, label %21

21:                                               ; preds = %20
  %22 = call i32 @pthread_mutex_init(ptr noundef nonnull %16, ptr noundef null) #16
  %23 = getelementptr inbounds nuw i8, ptr %16, i64 40
  store ptr @prte_odls_launch_local_t_class, ptr %23, align 8, !tbaa !25
  %24 = getelementptr inbounds nuw i8, ptr %16, i64 48
  store i32 1, ptr %24, align 8, !tbaa !26
  %25 = getelementptr inbounds nuw i8, ptr %16, i64 56
  %26 = getelementptr inbounds nuw i8, ptr %16, i64 96
  call void @llvm.memset.p0.i64(ptr noundef nonnull align 8 dereferenceable(32) %25, i8 0, i64 32, i1 false)
  call void @llvm.memset.p0.i64(ptr noundef nonnull align 8 dereferenceable(24) %26, i8 0, i64 24, i1 false)
  %27 = load ptr, ptr getelementptr inbounds nuw (i8, ptr @prte_odls_launch_local_t_class, i64 40), align 8, !tbaa !27
  %28 = load ptr, ptr %27, align 8, !tbaa !28
  %.not6.i.i = icmp eq ptr %28, null
  br i1 %.not6.i.i, label %pmix_obj_new_tma.exit, label %.lr.ph.i.i

.lr.ph.i.i:                                       ; preds = %21, %.lr.ph.i.i
  %29 = phi ptr [ %31, %.lr.ph.i.i ], [ %28, %21 ]
  %.07.i.i = phi ptr [ %30, %.lr.ph.i.i ], [ %27, %21 ]
  call void %29(ptr noundef nonnull %16) #16
  %30 = getelementptr inbounds nuw i8, ptr %.07.i.i, i64 8
  %31 = load ptr, ptr %30, align 8, !tbaa !28
  %.not.i.i = icmp eq ptr %31, null
  br i1 %.not.i.i, label %pmix_obj_new_tma.exit, label %.lr.ph.i.i, !llvm.loop !29

pmix_obj_new_tma.exit:                            ; preds = %.lr.ph.i.i, %20, %21
  %32 = getelementptr inbounds nuw i8, ptr %16, i64 128
  call void @PMIx_Load_nspace(ptr noundef nonnull %32, ptr noundef nonnull %2) #16
  %33 = getelementptr inbounds nuw i8, ptr %16, i64 384
  store ptr @odls_default_fork_local_proc, ptr %33, align 8, !tbaa !31
  %34 = getelementptr inbounds nuw i8, ptr %16, i64 120
  %35 = load ptr, ptr %34, align 8, !tbaa !34
  %36 = load ptr, ptr @prte_event_base, align 8, !tbaa !35
  %37 = call i32 @prte_event_assign(ptr noundef %35, ptr noundef %36, i32 noundef -1, i16 noundef signext 4, ptr noundef nonnull @prte_odls_base_default_launch_local, ptr noundef %16) #16
  %38 = load ptr, ptr %34, align 8, !tbaa !34
  call void @event_active(ptr noundef %38, i32 noundef 4, i16 noundef signext 1) #16
  br label %39

39:                                               ; preds = %4, %6, %11, %pmix_obj_new_tma.exit
  %.0 = phi i32 [ 0, %pmix_obj_new_tma.exit ], [ %3, %11 ], [ %3, %6 ], [ %3, %4 ]
  call void @llvm.lifetime.end.p0(i64 256, ptr nonnull %2) #16
  ret i32 %.0
}